target datalayout = "e-m:e-p270:32:32-p271:32:32-p272:64:64-i64:64-i128:128-f80:128-n8:16:32:64-S128"
target triple = "x86_64-pc-linux-gnu"

%class.anon.2 = type { ptr, i32, i32 }
%"class.pbrt::WavefrontPathIntegrator" = type { i8, i8, i8, %"class.pstd::array", %"class.pstd::array", ptr, ptr, %"class.pbrt::Filter", %"class.pbrt::Film", %"class.pbrt::Sampler", %"class.pbrt::Camera", ptr, %"class.pbrt::LightSampler", i32, i32, i8, i32, i32, %"struct.pbrt::SOA", [2 x ptr], ptr, ptr, ptr, ptr, ptr, ptr, ptr, ptr, ptr, ptr, ptr, ptr, ptr, ptr }
%"class.pstd::array" = type { [12 x i8] }
%"class.pbrt::Filter" = type { %"class.pbrt::TaggedPointer" }
%"class.pbrt::TaggedPointer" = type { i64 }
%"class.pbrt::Film" = type { %"class.pbrt::TaggedPointer.3" }
%"class.pbrt::TaggedPointer.3" = type { i64 }
%"class.pbrt::Sampler" = type { %"class.pbrt::TaggedPointer.4" }
%"class.pbrt::TaggedPointer.4" = type { i64 }
%"class.pbrt::Camera" = type { %"class.pbrt::TaggedPointer.5" }
%"class.pbrt::TaggedPointer.5" = type { i64 }
%"class.pbrt::LightSampler" = type { %"class.pbrt::TaggedPointer.6" }
%"class.pbrt::TaggedPointer.6" = type { i64 }
%"struct.pbrt::SOA" = type { i32, ptr, %"struct.pbrt::SOA.7", %"struct.pbrt::SOA.8", %"struct.pbrt::SOA.9", %"struct.pbrt::SOA.9", %"struct.pbrt::SOA.10", %"struct.pbrt::SOA.15" }
%"struct.pbrt::SOA.7" = type { i32, ptr, ptr }
%"struct.pbrt::SOA.8" = type { i32, ptr, ptr, ptr, ptr }
%"struct.pbrt::SOA.9" = type { i32, ptr, ptr }
%"struct.pbrt::SOA.10" = type { i32, ptr, %"struct.pbrt::SOA.11", %"struct.pbrt::SOA.12", %"struct.pbrt::SOA.12", %"struct.pbrt::SOA.13", ptr, %"struct.pbrt::SOA.14", %"struct.pbrt::SOA.14", %"struct.pbrt::SOA.9" }
%"struct.pbrt::SOA.11" = type { i32, ptr, ptr, ptr }
%"struct.pbrt::SOA.12" = type { i32, ptr, ptr, ptr }
%"struct.pbrt::SOA.13" = type { i32, ptr, ptr }
%"struct.pbrt::SOA.14" = type { i32, ptr, ptr, ptr }
%"struct.pbrt::SOA.15" = type { ptr, ptr, ptr, ptr, ptr }

; Function Attrs: inlinehint mustprogress nounwind uwtable
define internal void @"_ZZN4pbrt23WavefrontPathIntegrator18GenerateRaySamplesEiiENK3$_0clIPNS_15DebugMLTSamplerEEEDaT_"(ptr noundef nonnull align 8 dereferenceable(16) %0, ptr noundef %1) #3 align 2 {
  %3 = alloca ptr, align 8
  %4 = alloca ptr, align 8
  store ptr %0, ptr %3, align 8, !tbaa !13
  store ptr %1, ptr %4, align 8, !tbaa !533
  ret void
}

; Function Attrs: mustprogress uwtable
define internal void @"_ZN4pbrt6detail11DispatchCPUIRZNS_23WavefrontPathIntegrator18GenerateRaySamplesEiiE3$_0vNS_15DebugMLTSamplerEEEDaOT_Pvi"(ptr noundef nonnull align 8 dereferenceable(16) %0, ptr noundef %1, i32 noundef %2) #1 {
  %4 = alloca ptr, align 8
  %5 = alloca ptr, align 8
  %6 = alloca i32, align 4
  store ptr %0, ptr %4, align 8, !tbaa !13
  store ptr %1, ptr %5, align 8, !tbaa !13
  store i32 %2, ptr %6, align 4, !tbaa !16
  br label %7

7:                                                ; preds = %3
  br label %8

8:                                                ; preds = %7
  %9 = load ptr, ptr %4, align 8, !tbaa !13
  %10 = load ptr, ptr %5, align 8, !tbaa !13
  call void @"_ZZN4pbrt23WavefrontPathIntegrator18GenerateRaySamplesEiiENK3$_0clIPNS_15DebugMLTSamplerEEEDaT_"(ptr noundef nonnull align 8 dereferenceable(16) %9, ptr noundef %10)
  ret void
}

; Function Attrs: inlinehint mustprogress nounwind uwtable
define internal void @"_ZZN4pbrt23WavefrontPathIntegrator18GenerateRaySamplesEiiENK3$_0clIPNS_10MLTSamplerEEEDaT_"(ptr noundef nonnull align 8 dereferenceable(16) %0, ptr noundef %1) #3 align 2 {
  %3 = alloca ptr, align 8
  %4 = alloca ptr, align 8
  store ptr %0, ptr %3, align 8, !tbaa !13
  store ptr %1, ptr %4, align 8, !tbaa !44
  ret void
}

; Function Attrs: inlinehint mustprogress uwtable
define internal void @"_ZZN4pbrt23WavefrontPathIntegrator18GenerateRaySamplesEiiENK3$_0clIPNS_13ZSobolSamplerEEEDaT_"(ptr noundef nonnull align 8 dereferenceable(16) %0, ptr noundef %1) #5 align 2 {
  %3 = alloca ptr, align 8
  %4 = alloca ptr, align 8
  store ptr %0, ptr %3, align 8, !tbaa !13
  store ptr %1, ptr %4, align 8, !tbaa !42
  %5 = load ptr, ptr %3, align 8
  %6 = getelementptr inbounds nuw %class.anon.2, ptr %5, i32 0, i32 0
  %7 = load ptr, ptr %6, align 8, !tbaa !18
  %8 = getelementptr inbounds nuw %class.anon.2, ptr %5, i32 0, i32 1
  %9 = load i32, ptr %8, align 8, !tbaa !20
  %10 = getelementptr inbounds nuw %class.anon.2, ptr %5, i32 0, i32 2
  %11 = load i32, ptr %10, align 4, !tbaa !21
  call void @_ZN4pbrt23WavefrontPathIntegrator18GenerateRaySamplesINS_13ZSobolSamplerEEEvii(ptr noundef nonnull align 8 dereferenceable(648) %7, i32 noundef %9, i32 noundef %11)
  ret void
}

; Function Attrs: inlinehint mustprogress uwtable
define internal void @"_ZZN4pbrt23WavefrontPathIntegrator18GenerateRaySamplesEiiENK3$_0clIPNS_12SobolSamplerEEEDaT_"(ptr noundef nonnull align 8 dereferenceable(16) %0, ptr noundef %1) #5 align 2 {
  %3 = alloca ptr, align 8
  %4 = alloca ptr, align 8
  store ptr %0, ptr %3, align 8, !tbaa !13
  store ptr %1, ptr %4, align 8, !tbaa !40
  %5 = load ptr, ptr %3, align 8
  %6 = getelementptr inbounds nuw %class.anon.2, ptr %5, i32 0, i32 0
  %7 = load ptr, ptr %6, align 8, !tbaa !18
  %8 = getelementptr inbounds nuw %class.anon.2, ptr %5, i32 0, i32 1
  %9 = load i32, ptr %8, align 8, !tbaa !20
  %10 = getelementptr inbounds nuw %class.anon.2, ptr %5, i32 0, i32 2
  %11 = load i32, ptr %10, align 4, !tbaa !21
  call void @_ZN4pbrt23WavefrontPathIntegrator18GenerateRaySamplesINS_12SobolSamplerEEEvii(ptr noundef nonnull align 8 dereferenceable(648) %7, i32 noundef %9, i32 noundef %11)
  ret void
}

; Function Attrs: inlinehint mustprogress uwtable
define internal void @"_ZZN4pbrt23WavefrontPathIntegrator18GenerateRaySamplesEiiENK3$_0clIPNS_18PaddedSobolSamplerEEEDaT_"(ptr noundef nonnull align 8 dereferenceable(16) %0, ptr noundef %1) #5 align 2 {
  %3 = alloca ptr, align 8
  %4 = alloca ptr, align 8
  store ptr %0, ptr %3, align 8, !tbaa !13
  store ptr %1, ptr %4, align 8, !tbaa !38
  %5 = load ptr, ptr %3, align 8
  %6 = getelementptr inbounds nuw %class.anon.2, ptr %5, i32 0, i32 0
  %7 = load ptr, ptr %6, align 8, !tbaa !18
  %8 = getelementptr inbounds nuw %class.anon.2, ptr %5, i32 0, i32 1
  %9 = load i32, ptr %8, align 8, !tbaa !20
  %10 = getelementptr inbounds nuw %class.anon.2, ptr %5, i32 0, i32 2
  %11 = load i32, ptr %10, align 4, !tbaa !21
  call void @_ZN4pbrt23WavefrontPathIntegrator18GenerateRaySamplesINS_18PaddedSobolSamplerEEEvii(ptr noundef nonnull align 8 dereferenceable(648) %7, i32 noundef %9, i32 noundef %11)
  ret void
}

; Function Attrs: inlinehint mustprogress uwtable
define internal void @"_ZZN4pbrt23WavefrontPathIntegrator18GenerateRaySamplesEiiENK3$_0clIPNS_13HaltonSamplerEEEDaT_"(ptr noundef nonnull align 8 dereferenceable(16) %0, ptr noundef %1) #5 align 2 {
  %3 = alloca ptr, align 8
  %4 = alloca ptr, align 8
  store ptr %0, ptr %3, align 8, !tbaa !13
  store ptr %1, ptr %4, align 8, !tbaa !36
  %5 = load ptr, ptr %3, align 8
  %6 = getelementptr inbounds nuw %class.anon.2, ptr %5, i32 0, i32 0
  %7 = load ptr, ptr %6, align 8, !tbaa !18
  %8 = getelementptr inbounds nuw %class.anon.2, ptr %5, i32 0, i32 1
  %9 = load i32, ptr %8, align 8, !tbaa !20
  %10 = getelementptr inbounds nuw %class.anon.2, ptr %5, i32 0, i32 2
  %11 = load i32, ptr %10, align 4, !tbaa !21
  call void @_ZN4pbrt23WavefrontPathIntegrator18GenerateRaySamplesINS_13HaltonSamplerEEEvii(ptr noundef nonnull align 8 dereferenceable(648) %7, i32 noundef %9, i32 noundef %11)
  ret void
}

; Function Attrs: inlinehint mustprogress uwtable
define internal void @"_ZZN4pbrt23WavefrontPathIntegrator18GenerateRaySamplesEiiENK3$_0clIPNS_17StratifiedSamplerEEEDaT_"(ptr noundef nonnull align 8 dereferenceable(16) %0, ptr noundef %1) #5 align 2 {
  %3 = alloca ptr, align 8
  %4 = alloca ptr, align 8
  store ptr %0, ptr %3, align 8, !tbaa !13
  store ptr %1, ptr %4, align 8, !tbaa !34
  %5 = load ptr, ptr %3, align 8
  %6 = getelementptr inbounds nuw %class.anon.2, ptr %5, i32 0, i32 0
  %7 = load ptr, ptr %6, align 8, !tbaa !18
  %8 = getelementptr inbounds nuw %class.anon.2, ptr %5, i32 0, i32 1
  %9 = load i32, ptr %8, align 8, !tbaa !20
  %10 = getelementptr inbounds nuw %class.anon.2, ptr %5, i32 0, i32 2
  %11 = load i32, ptr %10, align 4, !tbaa !21
  call void @_ZN4pbrt23WavefrontPathIntegrator18GenerateRaySamplesINS_17StratifiedSamplerEEEvii(ptr noundef nonnull align 8 dereferenceable(648) %7, i32 noundef %9, i32 noundef %11)
  ret void
}

; Function Attrs: inlinehint mustprogress uwtable
define internal void @"_ZZN4pbrt23WavefrontPathIntegrator18GenerateRaySamplesEiiENK3$_0clIPNS_18IndependentSamplerEEEDaT_"(ptr noundef nonnull align 8 dereferenceable(16) %0, ptr noundef %1) #5 align 2 {
  %3 = alloca ptr, align 8
  %4 = alloca ptr, align 8
  store ptr %0, ptr %3, align 8, !tbaa !13
  store ptr %1, ptr %4, align 8, !tbaa !32
  %5 = load ptr, ptr %3, align 8
  %6 = getelementptr inbounds nuw %class.anon.2, ptr %5, i32 0, i32 0
  %7 = load ptr, ptr %6, align 8, !tbaa !18
  %8 = getelementptr inbounds nuw %class.anon.2, ptr %5, i32 0, i32 1
  %9 = load i32, ptr %8, align 8, !tbaa !20
  %10 = getelementptr inbounds nuw %class.anon.2, ptr %5, i32 0, i32 2
  %11 = load i32, ptr %10, align 4, !tbaa !21
  call void @_ZN4pbrt23WavefrontPathIntegrator18GenerateRaySamplesINS_18IndependentSamplerEEEvii(ptr noundef nonnull align 8 dereferenceable(648) %7, i32 noundef %9, i32 noundef %11)
  ret void
}

; Function Attrs: inlinehint mustprogress uwtable
define internal void @"_ZZN4pbrt23WavefrontPathIntegrator18GenerateRaySamplesEiiENK3$_0clIPNS_14PMJ02BNSamplerEEEDaT_"(ptr noundef nonnull align 8 dereferenceable(16) %0, ptr noundef %1) #5 align 2 {
  %3 = alloca ptr, align 8
  %4 = alloca ptr, align 8
  store ptr %0, ptr %3, align 8, !tbaa !13
  store ptr %1, ptr %4, align 8, !tbaa !30
  %5 = load ptr, ptr %3, align 8
  %6 = getelementptr inbounds nuw %class.anon.2, ptr %5, i32 0, i32 0
  %7 = load ptr, ptr %6, align 8, !tbaa !18
  %8 = getelementptr inbounds nuw %class.anon.2, ptr %5, i32 0, i32 1
  %9 = load i32, ptr %8, align 8, !tbaa !20
  %10 = getelementptr inbounds nuw %class.anon.2, ptr %5, i32 0, i32 2
  %11 = load i32, ptr %10, align 4, !tbaa !21
  call void @_ZN4pbrt23WavefrontPathIntegrator18GenerateRaySamplesINS_14PMJ02BNSamplerEEEvii(ptr noundef nonnull align 8 dereferenceable(648) %7, i32 noundef %9, i32 noundef %11)
  ret void
}

; Function Attrs: mustprogress uwtable
define internal void @"_ZN4pbrt6detail11DispatchCPUIRZNS_23WavefrontPathIntegrator18GenerateRaySamplesEiiE3$_0vNS_14PMJ02BNSamplerENS_18IndependentSamplerENS_17StratifiedSamplerENS_13HaltonSamplerENS_18PaddedSobolSamplerENS_12SobolSamplerENS_13ZSobolSamplerENS_10MLTSamplerEJNS_15DebugMLTSamplerEEvEEDaOT_Pvi"(ptr noundef nonnull align 8 dereferenceable(16) %0, ptr noundef %1, i32 noundef %2) #1 {
  %4 = alloca ptr, align 8
  %5 = alloca ptr, align 8
  %6 = alloca i32, align 4
  store ptr %0, ptr %4, align 8, !tbaa !13
  store ptr %1, ptr %5, align 8, !tbaa !13
  store i32 %2, ptr %6, align 4, !tbaa !16
  br label %7

7:                                                ; preds = %3
  br label %8

8:                                                ; preds = %7
  %9 = load i32, ptr %6, align 4, !tbaa !16
  switch i32 %9, label %34 [
    i32 0, label %10
    i32 1, label %13
    i32 2, label %16
    i32 3, label %19
    i32 4, label %22
    i32 5, label %25
    i32 6, label %28
    i32 7, label %31
  ]

10:                                               ; preds = %8
  %11 = load ptr, ptr %4, align 8, !tbaa !13
  %12 = load ptr, ptr %5, align 8, !tbaa !13
  call void @"_ZZN4pbrt23WavefrontPathIntegrator18GenerateRaySamplesEiiENK3$_0clIPNS_14PMJ02BNSamplerEEEDaT_"(ptr noundef nonnull align 8 dereferenceable(16) %11, ptr noundef %12)
  br label %39

13:                                               ; preds = %8
  %14 = load ptr, ptr %4, align 8, !tbaa !13
  %15 = load ptr, ptr %5, align 8, !tbaa !13
  call void @"_ZZN4pbrt23WavefrontPathIntegrator18GenerateRaySamplesEiiENK3$_0clIPNS_18IndependentSamplerEEEDaT_"(ptr noundef nonnull align 8 dereferenceable(16) %14, ptr noundef %15)
  br label %39

16:                                               ; preds = %8
  %17 = load ptr, ptr %4, align 8, !tbaa !13
  %18 = load ptr, ptr %5, align 8, !tbaa !13
  call void @"_ZZN4pbrt23WavefrontPathIntegrator18GenerateRaySamplesEiiENK3$_0clIPNS_17StratifiedSamplerEEEDaT_"(ptr noundef nonnull align 8 dereferenceable(16) %17, ptr noundef %18)
  br label %39

19:                                               ; preds = %8
  %20 = load ptr, ptr %4, align 8, !tbaa !13
  %21 = load ptr, ptr %5, align 8, !tbaa !13
  call void @"_ZZN4pbrt23WavefrontPathIntegrator18GenerateRaySamplesEiiENK3$_0clIPNS_13HaltonSamplerEEEDaT_"(ptr noundef nonnull align 8 dereferenceable(16) %20, ptr noundef %21)
  br label %39

22:                                               ; preds = %8
  %23 = load ptr, ptr %4, align 8, !tbaa !13
  %24 = load ptr, ptr %5, align 8, !tbaa !13
  call void @"_ZZN4pbrt23WavefrontPathIntegrator18GenerateRaySamplesEiiENK3$_0clIPNS_18PaddedSobolSamplerEEEDaT_"(ptr noundef nonnull align 8 dereferenceable(16) %23, ptr noundef %24)
  br label %39

25:                                               ; preds = %8
  %26 = load ptr, ptr %4, align 8, !tbaa !13
  %27 = load ptr, ptr %5, align 8, !tbaa !13
  call void @"_ZZN4pbrt23WavefrontPathIntegrator18GenerateRaySamplesEiiENK3$_0clIPNS_12SobolSamplerEEEDaT_"(ptr noundef nonnull align 8 dereferenceable(16) %26, ptr noundef %27)
  br label %39

28:                                               ; preds = %8
  %29 = load ptr, ptr %4, align 8, !tbaa !13
  %30 = load ptr, ptr %5, align 8, !tbaa !13
  call void @"_ZZN4pbrt23WavefrontPathIntegrator18GenerateRaySamplesEiiENK3$_0clIPNS_13ZSobolSamplerEEEDaT_"(ptr noundef nonnull align 8 dereferenceable(16) %29, ptr noundef %30)
  br label %39

31:                                               ; preds = %8
  %32 = load ptr, ptr %4, align 8, !tbaa !13
  %33 = load ptr, ptr %5, align 8, !tbaa !13
  call void @"_ZZN4pbrt23WavefrontPathIntegrator18GenerateRaySamplesEiiENK3$_0clIPNS_10MLTSamplerEEEDaT_"(ptr noundef nonnull align 8 dereferenceable(16) %32, ptr noundef %33)
  br label %39

34:                                               ; preds = %8
  %35 = load ptr, ptr %4, align 8, !tbaa !13
  %36 = load ptr, ptr %5, align 8, !tbaa !13
  %37 = load i32, ptr %6, align 4, !tbaa !16
  %38 = sub nsw i32 %37, 8
  call void @"_ZN4pbrt6detail11DispatchCPUIRZNS_23WavefrontPathIntegrator18GenerateRaySamplesEiiE3$_0vNS_15DebugMLTSamplerEEEDaOT_Pvi"(ptr noundef nonnull align 8 dereferenceable(16) %35, ptr noundef %36, i32 noundef %38)
  br label %39

39:                                               ; preds = %34, %31, %28, %25, %22, %19, %16, %13, %10
  ret void
}

; Function Attrs: mustprogress nounwind uwtable
define linkonce_odr dso_local noundef i32 @_ZNK4pbrt13TaggedPointerIJNS_14PMJ02BNSamplerENS_18IndependentSamplerENS_17StratifiedSamplerENS_13HaltonSamplerENS_18PaddedSobolSamplerENS_12SobolSamplerENS_13ZSobolSamplerENS_10MLTSamplerENS_15DebugMLTSamplerEEE3TagEv(ptr noundef nonnull align 8 dereferenceable(8) %0) #7 comdat align 2 {
  %2 = alloca ptr, align 8
  store ptr %0, ptr %2, align 8, !tbaa !22
  %3 = load ptr, ptr %2, align 8
  %4 = getelementptr inbounds nuw %"class.pbrt::TaggedPointer.4", ptr %3, i32 0, i32 0
  %5 = load i64, ptr %4, align 8, !tbaa !28
  %6 = and i64 %5, -144115188075855872
  %7 = lshr i64 %6, 57
  %8 = trunc i64 %7 to i32
  ret i32 %8
}

; Function Attrs: mustprogress nounwind uwtable
define linkonce_odr dso_local noundef ptr @_ZN4pbrt13TaggedPointerIJNS_14PMJ02BNSamplerENS_18IndependentSamplerENS_17StratifiedSamplerENS_13HaltonSamplerENS_18PaddedSobolSamplerENS_12SobolSamplerENS_13ZSobolSamplerENS_10MLTSamplerENS_15DebugMLTSamplerEEE3ptrEv(ptr noundef nonnull align 8 dereferenceable(8) %0) #7 comdat align 2 {
  %2 = alloca ptr, align 8
  store ptr %0, ptr %2, align 8, !tbaa !22
  %3 = load ptr, ptr %2, align 8
  %4 = getelementptr inbounds nuw %"class.pbrt::TaggedPointer.4", ptr %3, i32 0, i32 0
  %5 = load i64, ptr %4, align 8, !tbaa !28
  %6 = and i64 %5, 144115188075855871
  %7 = inttoptr i64 %6 to ptr
  ret ptr %7
}

; Function Attrs: mustprogress uwtable
define internal void @"_ZN4pbrt13TaggedPointerIJNS_14PMJ02BNSamplerENS_18IndependentSamplerENS_17StratifiedSamplerENS_13HaltonSamplerENS_18PaddedSobolSamplerENS_12SobolSamplerENS_13ZSobolSamplerENS_10MLTSamplerENS_15DebugMLTSamplerEEE11DispatchCPUIRZNS_23WavefrontPathIntegrator18GenerateRaySamplesEiiE3$_0EEDcOT_"(ptr noundef nonnull align 8 dereferenceable(8) %0, ptr noundef nonnull align 8 dereferenceable(16) %1) #1 align 2 {
  %3 = alloca ptr, align 8
  %4 = alloca ptr, align 8
  store ptr %0, ptr %3, align 8, !tbaa !22
  store ptr %1, ptr %4, align 8, !tbaa !13
  %5 = load ptr, ptr %3, align 8
  br label %6

6:                                                ; preds = %2
  br label %7

7:                                                ; preds = %6
  %8 = load ptr, ptr %4, align 8, !tbaa !13
  %9 = call noundef ptr @_ZN4pbrt13TaggedPointerIJNS_14PMJ02BNSamplerENS_18IndependentSamplerENS_17StratifiedSamplerENS_13HaltonSamplerENS_18PaddedSobolSamplerENS_12SobolSamplerENS_13ZSobolSamplerENS_10MLTSamplerENS_15DebugMLTSamplerEEE3ptrEv(ptr noundef nonnull align 8 dereferenceable(8) %5)
  %10 = call noundef i32 @_ZNK4pbrt13TaggedPointerIJNS_14PMJ02BNSamplerENS_18IndependentSamplerENS_17StratifiedSamplerENS_13HaltonSamplerENS_18PaddedSobolSamplerENS_12SobolSamplerENS_13ZSobolSamplerENS_10MLTSamplerENS_15DebugMLTSamplerEEE3TagEv(ptr noundef nonnull align 8 dereferenceable(8) %5)
  %11 = sub i32 %10, 1
  call void @"_ZN4pbrt6detail11DispatchCPUIRZNS_23WavefrontPathIntegrator18GenerateRaySamplesEiiE3$_0vNS_14PMJ02BNSamplerENS_18IndependentSamplerENS_17StratifiedSamplerENS_13HaltonSamplerENS_18PaddedSobolSamplerENS_12SobolSamplerENS_13ZSobolSamplerENS_10MLTSamplerEJNS_15DebugMLTSamplerEEvEEDaOT_Pvi"(ptr noundef nonnull align 8 dereferenceable(16) %8, ptr noundef %9, i32 noundef %11)
  ret void
}

; Function Attrs: mustprogress uwtable
define dso_local void @_ZN4pbrt23WavefrontPathIntegrator18GenerateRaySamplesEii(ptr noundef nonnull align 8 dereferenceable(648) %0, i32 noundef %1, i32 noundef %2) #1 align 2 {
  %4 = alloca ptr, align 8
  %5 = alloca i32, align 4
  %6 = alloca i32, align 4
  %7 = alloca %class.anon.2, align 8
  store ptr %0, ptr %4, align 8, !tbaa !14
  store i32 %1, ptr %5, align 4, !tbaa !16
  store i32 %2, ptr %6, align 4, !tbaa !16
  %8 = load ptr, ptr %4, align 8
  call void @llvm.lifetime.start.p0(i64 16, ptr %7) #19
  %9 = getelementptr inbounds nuw %class.anon.2, ptr %7, i32 0, i32 0
  store ptr %8, ptr %9, align 8, !tbaa !18
  %10 = getelementptr inbounds nuw %class.anon.2, ptr %7, i32 0, i32 1
  %11 = load i32, ptr %5, align 4, !tbaa !16
  store i32 %11, ptr %10, align 8, !tbaa !20
  %12 = getelementptr inbounds nuw %class.anon.2, ptr %7, i32 0, i32 2
  %13 = load i32, ptr %6, align 4, !tbaa !16
  store i32 %13, ptr %12, align 4, !tbaa !21
  %14 = getelementptr inbounds nuw %"class.pbrt::WavefrontPathIntegrator", ptr %8, i32 0, i32 9
  call void @"_ZN4pbrt13TaggedPointerIJNS_14PMJ02BNSamplerENS_18IndependentSamplerENS_17StratifiedSamplerENS_13HaltonSamplerENS_18PaddedSobolSamplerENS_12SobolSamplerENS_13ZSobolSamplerENS_10MLTSamplerENS_15DebugMLTSamplerEEE11DispatchCPUIRZNS_23WavefrontPathIntegrator18GenerateRaySamplesEiiE3$_0EEDcOT_"(ptr noundef nonnull align 8 dereferenceable(8) %14, ptr noundef nonnull align 8 dereferenceable(16) %7)
  call void @llvm.lifetime.end.p0(i64 16, ptr %7) #19
  ret void
}