; Function Attrs: mustprogress uwtable
define dso_local void @_ZN4pbrt23WavefrontPathIntegrator18GenerateRaySamplesEii(ptr noundef nonnull align 8 dereferenceable(648) %0, i32 noundef %1, i32 noundef %2) local_unnamed_addr #2 align 2 {
  %4 = getelementptr inbounds nuw i8, ptr %0, i64 64
  %.val = load i64, ptr %4, align 8, !tbaa !4
  %5 = lshr i64 %.val, 57
  %6 = trunc nuw nsw i64 %5 to i32
  switch i32 %6, label %"_ZN4pbrt13TaggedPointerIJNS_14PMJ02BNSamplerENS_18IndependentSamplerENS_17StratifiedSamplerENS_13HaltonSamplerENS_18PaddedSobolSamplerENS_12SobolSamplerENS_13ZSobolSamplerENS_10MLTSamplerENS_15DebugMLTSamplerEEE11DispatchCPUIRZNS_23WavefrontPathIntegrator18GenerateRaySamplesEiiE3$_0EEDcOT_.exit" [
    i32 1, label %7
    i32 2, label %8
    i32 3, label %9
    i32 4, label %10
    i32 5, label %11
    i32 6, label %12
    i32 7, label %13
  ]

7:                                                ; preds = %3
  tail call void @_ZN4pbrt23WavefrontPathIntegrator18GenerateRaySamplesINS_14PMJ02BNSamplerEEEvii(ptr noundef nonnull align 8 dereferenceable(648) %0, i32 noundef %1, i32 noundef %2)
  br label %"_ZN4pbrt13TaggedPointerIJNS_14PMJ02BNSamplerENS_18IndependentSamplerENS_17StratifiedSamplerENS_13HaltonSamplerENS_18PaddedSobolSamplerENS_12SobolSamplerENS_13ZSobolSamplerENS_10MLTSamplerENS_15DebugMLTSamplerEEE11DispatchCPUIRZNS_23WavefrontPathIntegrator18GenerateRaySamplesEiiE3$_0EEDcOT_.exit"

8:                                                ; preds = %3
  tail call void @_ZN4pbrt23WavefrontPathIntegrator18GenerateRaySamplesINS_18IndependentSamplerEEEvii(ptr noundef nonnull align 8 dereferenceable(648) %0, i32 noundef %1, i32 noundef %2)
  br label %"_ZN4pbrt13TaggedPointerIJNS_14PMJ02BNSamplerENS_18IndependentSamplerENS_17StratifiedSamplerENS_13HaltonSamplerENS_18PaddedSobolSamplerENS_12SobolSamplerENS_13ZSobolSamplerENS_10MLTSamplerENS_15DebugMLTSamplerEEE11DispatchCPUIRZNS_23WavefrontPathIntegrator18GenerateRaySamplesEiiE3$_0EEDcOT_.exit"

9:                                                ; preds = %3
  tail call void @_ZN4pbrt23WavefrontPathIntegrator18GenerateRaySamplesINS_17StratifiedSamplerEEEvii(ptr noundef nonnull align 8 dereferenceable(648) %0, i32 noundef %1, i32 noundef %2)
  br label %"_ZN4pbrt13TaggedPointerIJNS_14PMJ02BNSamplerENS_18IndependentSamplerENS_17StratifiedSamplerENS_13HaltonSamplerENS_18PaddedSobolSamplerENS_12SobolSamplerENS_13ZSobolSamplerENS_10MLTSamplerENS_15DebugMLTSamplerEEE11DispatchCPUIRZNS_23WavefrontPathIntegrator18GenerateRaySamplesEiiE3$_0EEDcOT_.exit"

10:                                               ; preds = %3
  tail call void @_ZN4pbrt23WavefrontPathIntegrator18GenerateRaySamplesINS_13HaltonSamplerEEEvii(ptr noundef nonnull align 8 dereferenceable(648) %0, i32 noundef %1, i32 noundef %2)
  br label %"_ZN4pbrt13TaggedPointerIJNS_14PMJ02BNSamplerENS_18IndependentSamplerENS_17StratifiedSamplerENS_13HaltonSamplerENS_18PaddedSobolSamplerENS_12SobolSamplerENS_13ZSobolSamplerENS_10MLTSamplerENS_15DebugMLTSamplerEEE11DispatchCPUIRZNS_23WavefrontPathIntegrator18GenerateRaySamplesEiiE3$_0EEDcOT_.exit"

11:                                               ; preds = %3
  tail call void @_ZN4pbrt23WavefrontPathIntegrator18GenerateRaySamplesINS_18PaddedSobolSamplerEEEvii(ptr noundef nonnull align 8 dereferenceable(648) %0, i32 noundef %1, i32 noundef %2)
  br label %"_ZN4pbrt13TaggedPointerIJNS_14PMJ02BNSamplerENS_18IndependentSamplerENS_17StratifiedSamplerENS_13HaltonSamplerENS_18PaddedSobolSamplerENS_12SobolSamplerENS_13ZSobolSamplerENS_10MLTSamplerENS_15DebugMLTSamplerEEE11DispatchCPUIRZNS_23WavefrontPathIntegrator18GenerateRaySamplesEiiE3$_0EEDcOT_.exit"

12:                                               ; preds = %3
  tail call void @_ZN4pbrt23WavefrontPathIntegrator18GenerateRaySamplesINS_12SobolSamplerEEEvii(ptr noundef nonnull align 8 dereferenceable(648) %0, i32 noundef %1, i32 noundef %2)
  br label %"_ZN4pbrt13TaggedPointerIJNS_14PMJ02BNSamplerENS_18IndependentSamplerENS_17StratifiedSamplerENS_13HaltonSamplerENS_18PaddedSobolSamplerENS_12SobolSamplerENS_13ZSobolSamplerENS_10MLTSamplerENS_15DebugMLTSamplerEEE11DispatchCPUIRZNS_23WavefrontPathIntegrator18GenerateRaySamplesEiiE3$_0EEDcOT_.exit"

13:                                               ; preds = %3
  tail call void @_ZN4pbrt23WavefrontPathIntegrator18GenerateRaySamplesINS_13ZSobolSamplerEEEvii(ptr noundef nonnull align 8 dereferenceable(648) %0, i32 noundef %1, i32 noundef %2)
  br label %"_ZN4pbrt13TaggedPointerIJNS_14PMJ02BNSamplerENS_18IndependentSamplerENS_17StratifiedSamplerENS_13HaltonSamplerENS_18PaddedSobolSamplerENS_12SobolSamplerENS_13ZSobolSamplerENS_10MLTSamplerENS_15DebugMLTSamplerEEE11DispatchCPUIRZNS_23WavefrontPathIntegrator18GenerateRaySamplesEiiE3$_0EEDcOT_.exit"

"_ZN4pbrt13TaggedPointerIJNS_14PMJ02BNSamplerENS_18IndependentSamplerENS_17StratifiedSamplerENS_13HaltonSamplerENS_18PaddedSobolSamplerENS_12SobolSamplerENS_13ZSobolSamplerENS_10MLTSamplerENS_15DebugMLTSamplerEEE11DispatchCPUIRZNS_23WavefrontPathIntegrator18GenerateRaySamplesEiiE3$_0EEDcOT_.exit": ; preds = %3, %7, %8, %9, %10, %11, %12, %13
  ret void
}